TN:
SF:/root/wazuh-4.5/src/syscheckd/src/db/src/fimDBSpecialization.h
end_of_record
SF:/root/wazuh-4.5/src/syscheckd/src/db/src/dbRegistryValue.cpp
FN:15,_ZN13RegistryValue14createFimEntryEv
FNDA:0,_ZN13RegistryValue14createFimEntryEv
FN:57,_ZN13RegistryValue10createJSONEv
FNDA:0,_ZN13RegistryValue10createJSONEv
DA:15,0
DA:17,0
DA:18,0
DA:20,0
DA:22,0
DA:24,0
DA:26,0
DA:27,0
DA:28,0
DA:29,0
DA:30,0
DA:31,0
DA:32,0
DA:33,0
DA:34,0
DA:35,0
DA:36,0
DA:37,0
DA:38,0
DA:55,0
DA:57,0
DA:60,0
DA:61,0
DA:62,0
DA:64,0
DA:65,0
DA:66,0
DA:67,0
DA:68,0
DA:69,0
DA:70,0
DA:71,0
DA:72,0
DA:73,0
DA:74,0
DA:75,0
DA:76,0
DA:78,0
DA:80,0
DA:82,0
DA:83,0
DA:84,0
DA:87,0
DA:88,0
end_of_record
SF:/root/wazuh-4.5/src/syscheckd/src/db/src/dbRegistryValue.hpp
FN:21,_ZN23FimRegistryValueDeleterclEP9fim_entry
FNDA:0,_ZN23FimRegistryValueDeleterclEP9fim_entry
DA:21,0
DA:23,0
DA:25,0
DA:27,0
DA:30,0
DA:32,0
end_of_record
TN:
SF:/root/wazuh-4.5/src/syscheckd/src/db/src/fimDBSpecialization.h
FN:340,_ZN12FIMDBCreatorIL6OSType0EE9setLimitsESt10shared_ptrI6DBSyncEii
FNDA:15,_ZN12FIMDBCreatorIL6OSType0EE9setLimitsESt10shared_ptrI6DBSyncEii
FN:352,_ZN12FIMDBCreatorIL6OSType0EE13registerRsyncESt10shared_ptrI10RemoteSyncERKPvSt8functionIFvRKNSt7__cxx1112basic_stringIcSt11char_traitsIcESaIcEEEEESI_b
FNDA:0,_ZN12FIMDBCreatorIL6OSType0EE13registerRsyncESt10shared_ptrI10RemoteSyncERKPvSt8functionIFvRKNSt7__cxx1112basic_stringIcSt11char_traitsIcESaIcEEEEESI_b
FN:364,_ZN12FIMDBCreatorIL6OSType0EE4syncESt10shared_ptrI10RemoteSyncERKPvSt8functionIFvRKNSt7__cxx1112basic_stringIcSt11char_traitsIcESaIcEEEEESI_b
FNDA:0,_ZN12FIMDBCreatorIL6OSType0EE4syncESt10shared_ptrI10RemoteSyncERKPvSt8functionIFvRKNSt7__cxx1112basic_stringIcSt11char_traitsIcESaIcEEEEESI_b
DA:340,15
DA:344,15
DA:345,15
DA:352,0
DA:358,0
DA:360,0
DA:362,0
DA:364,0
DA:370,0
DA:371,0
DA:373,0
end_of_record
SF:/root/wazuh-4.5/src/syscheckd/src/db/src/fimDB.cpp
FN:18,_ZN5FIMDB13registerRSyncEv
FNDA:0,_ZN5FIMDB13registerRSyncEv
FN:32,_ZN5FIMDB4syncEv
FNDA:0,_ZN5FIMDB4syncEv
FN:48,_ZN5FIMDB13syncAlgorithmEv
FNDA:0,_ZN5FIMDB13syncAlgorithmEv
FN:80,_ZNK5FIMDB14getCurrentTimeEv
FNDA:0,_ZNK5FIMDB14getCurrentTimeEv
FN:85,_ZN5FIMDB4initEjjjSt8functionIFvRKNSt7__cxx1112basic_stringIcSt11char_traitsIcESaIcEEEEESA_S0_IFv19modules_log_level_tS8_EESt10shared_ptrI6DBSyncESE_I10RemoteSyncEiib
FNDA:15,_ZN5FIMDB4initEjjjSt8functionIFvRKNSt7__cxx1112basic_stringIcSt11char_traitsIcESaIcEEEEESA_S0_IFv19modules_log_level_tS8_EESt10shared_ptrI6DBSyncESE_I10RemoteSyncEiib
FN:114,_ZN5FIMDB10removeItemERKN8nlohmann10basic_jsonISt3mapSt6vectorNSt7__cxx1112basic_stringIcSt11char_traitsIcESaIcEEEblmdSaNS0_14adl_serializerEEE
FNDA:11,_ZN5FIMDB10removeItemERKN8nlohmann10basic_jsonISt3mapSt6vectorNSt7__cxx1112basic_stringIcSt11char_traitsIcESaIcEEEblmdSaNS0_14adl_serializerEEE
FN:124,_ZN5FIMDB10updateItemERKN8nlohmann10basic_jsonISt3mapSt6vectorNSt7__cxx1112basic_stringIcSt11char_traitsIcESaIcEEEblmdSaNS0_14adl_serializerEEESt8functionIFv18ReturnTypeCallbackSD_EE
FNDA:31,_ZN5FIMDB10updateItemERKN8nlohmann10basic_jsonISt3mapSt6vectorNSt7__cxx1112basic_stringIcSt11char_traitsIcESaIcEEEblmdSaNS0_14adl_serializerEEESt8functionIFv18ReturnTypeCallbackSD_EE
FN:134,_ZN5FIMDB12executeQueryERKN8nlohmann10basic_jsonISt3mapSt6vectorNSt7__cxx1112basic_stringIcSt11char_traitsIcESaIcEEEblmdSaNS0_14adl_serializerEEESt8functionIFv18ReturnTypeCallbackSD_EE
FNDA:20,_ZN5FIMDB12executeQueryERKN8nlohmann10basic_jsonISt3mapSt6vectorNSt7__cxx1112basic_stringIcSt11char_traitsIcESaIcEEEblmdSaNS0_14adl_serializerEEESt8functionIFv18ReturnTypeCallbackSD_EE
FN:139,_ZN5FIMDB12runIntegrityEv
FNDA:0,_ZN5FIMDB12runIntegrityEv
FN:148,_ZZN5FIMDB12runIntegrityEvENKUlvE_clEv
FNDA:0,_ZZN5FIMDB12runIntegrityEvENKUlvE_clEv
FN:155,_ZZZN5FIMDB12runIntegrityEvENKUlvE_clEvENKUlvE_clEv
FNDA:0,_ZZZN5FIMDB12runIntegrityEvENKUlvE_clEvENKUlvE_clEv
FN:174,_ZN5FIMDB11pushMessageERKNSt7__cxx1112basic_stringIcSt11char_traitsIcESaIcEEE
FNDA:0,_ZN5FIMDB11pushMessageERKNSt7__cxx1112basic_stringIcSt11char_traitsIcESaIcEEE
FN:200,_ZN5FIMDB8teardownEv
FNDA:15,_ZN5FIMDB8teardownEv
DA:18,0
DA:20,0
DA:22,0
DA:24,0
DA:25,0
DA:26,0
DA:27,0
DA:28,0
DA:30,0
DA:32,0
DA:34,0
DA:36,0
DA:38,0
DA:39,0
DA:40,0
DA:41,0
DA:42,0
DA:43,0
DA:44,0
DA:46,0
DA:48,0
DA:52,0
DA:54,0
DA:56,0
DA:58,0
DA:59,0
DA:62,0
DA:64,0
DA:68,0
DA:70,0
DA:72,0
DA:75,0
DA:76,0
DA:78,0
DA:80,0
DA:82,0
DA:85,15
DA:97,15
DA:98,15
DA:99,15
DA:100,15
DA:101,15
DA:102,15
DA:103,15
DA:104,15
DA:105,15
DA:106,15
DA:107,15
DA:108,15
DA:109,15
DA:110,15
DA:111,15
DA:112,15
DA:114,11
DA:116,11
DA:118,11
DA:120,11
DA:122,11
DA:124,31
DA:126,31
DA:128,31
DA:130,31
DA:132,31
DA:134,20
DA:136,20
DA:137,20
DA:139,0
DA:141,0
DA:143,0
DA:145,0
DA:146,0
DA:147,0
DA:148,0
DA:150,0
DA:151,0
DA:152,0
DA:153,0
DA:155,0
DA:157,0
DA:164,0
DA:165,0
DA:167,0
DA:170,0
DA:172,0
DA:174,0
DA:176,0
DA:178,0
DA:180,0
DA:181,0
DA:182,0
DA:183,0
DA:184,0
DA:188,0
DA:197,0
DA:198,0
DA:200,15
DA:202,15
DA:206,15
DA:207,15
DA:208,15
DA:218,15
end_of_record
SF:/root/wazuh-4.5/src/syscheckd/src/db/src/fimDB.hpp
FN:187,_ZN5FIMDB13stopIntegrityEv
FNDA:15,_ZN5FIMDB13stopIntegrityEv
FN:254,_ZN5FIMDB18setTimeLastSyncMsgEv
FNDA:0,_ZN5FIMDB18setTimeLastSyncMsgEv
DA:187,15
DA:189,15
DA:190,15
DA:192,15
DA:194,0
DA:195,0
DA:197,0
DA:199,0
DA:202,15
DA:254,0
DA:256,0
DA:257,0
end_of_record
TN:
SF:/root/wazuh-4.5/src/syscheckd/src/db/src/dbRegistryKey.hpp
FN:20,_ZN21FimRegistryKeyDeleterclEP9fim_entry
FNDA:0,_ZN21FimRegistryKeyDeleterclEP9fim_entry
DA:20,0
DA:22,0
DA:24,0
DA:26,0
DA:28,0
DA:31,0
DA:33,0
DA:36,0
DA:39,0
DA:41,0
end_of_record
SF:/root/wazuh-4.5/src/syscheckd/src/db/src/fimDBSpecialization.h
end_of_record
SF:/root/wazuh-4.5/src/syscheckd/src/db/src/dbRegistryKey.cpp
FN:15,_ZN11RegistryKey14createFimEntryEv
FNDA:0,_ZN11RegistryKey14createFimEntryEv
FN:86,_ZN11RegistryKey10createJSONEv
FNDA:0,_ZN11RegistryKey10createJSONEv
DA:15,0
DA:17,0
DA:18,0
DA:19,0
DA:20,0
DA:22,0
DA:24,0
DA:26,0
DA:28,0
DA:29,0
DA:30,0
DA:32,0
DA:34,0
DA:44,0
DA:45,0
DA:46,0
DA:47,0
DA:48,0
DA:49,0
DA:50,0
DA:51,0
DA:53,0
DA:55,0
DA:65,0
DA:66,0
DA:67,0
DA:84,0
DA:86,0
DA:88,0
DA:89,0
DA:90,0
DA:92,0
DA:93,0
DA:94,0
DA:95,0
DA:96,0
DA:97,0
DA:98,0
DA:99,0
DA:100,0
DA:101,0
DA:102,0
DA:103,0
DA:104,0
DA:106,0
DA:108,0
DA:110,0
DA:111,0
DA:112,0
DA:115,0
DA:117,0
end_of_record
TN:
SF:/root/wazuh-4.5/src/syscheckd/src/db/src/fimDB.hpp
FN:108,_ZN5FIMDB8instanceEv
FNDA:0,_ZN5FIMDB8instanceEv
FN:207,_ZN5FIMDB11logFunctionE19modules_log_level_tRKNSt7__cxx1112basic_stringIcSt11char_traitsIcESaIcEEE
FNDA:0,_ZN5FIMDB11logFunctionE19modules_log_level_tRKNSt7__cxx1112basic_stringIcSt11char_traitsIcESaIcEEE
FN:298,_ZN5FIMDBC2Ev
FNDA:0,_ZN5FIMDBC2Ev
DA:108,0
DA:110,0
DA:111,0
DA:207,0
DA:210,0
DA:212,0
DA:214,0
DA:298,0
end_of_record
SF:/root/wazuh-4.5/src/syscheckd/src/db/src/dbItem.hpp
FN:21,_ZN6DBItemC2ERKNSt7__cxx1112basic_stringIcSt11char_traitsIcESaIcEEERKjRKlS7_RK14fim_event_mode
FNDA:0,_ZN6DBItemC2ERKNSt7__cxx1112basic_stringIcSt11char_traitsIcESaIcEEERKjRKlS7_RK14fim_event_mode
DA:21,0
DA:26,0
DA:27,0
DA:28,0
DA:29,0
DA:30,0
DA:32,0
DA:33,0
DA:34,0
end_of_record
SF:/root/wazuh-4.5/src/syscheckd/src/db/src/file.cpp
FN:42,_ZN2DB15createJsonEventERKN8nlohmann10basic_jsonISt3mapSt6vectorNSt7__cxx1112basic_stringIcSt11char_traitsIcESaIcEEEblmdSaNS0_14adl_serializerEEESD_18ReturnTypeCallbackP21create_json_event_ctx
FNDA:28,_ZN2DB15createJsonEventERKN8nlohmann10basic_jsonISt3mapSt6vectorNSt7__cxx1112basic_stringIcSt11char_traitsIcESaIcEEEblmdSaNS0_14adl_serializerEEESD_18ReturnTypeCallbackP21create_json_event_ctx
FN:327,_ZN2DB10removeFileERKNSt7__cxx1112basic_stringIcSt11char_traitsIcESaIcEEE
FNDA:11,_ZN2DB10removeFileERKNSt7__cxx1112basic_stringIcSt11char_traitsIcESaIcEEE
FN:341,_ZN2DB7getFileERKNSt7__cxx1112basic_stringIcSt11char_traitsIcESaIcEEESt8functionIFvRKN8nlohmann10basic_jsonISt3mapSt6vectorS5_blmdSaNS9_14adl_serializerEEEEE
FNDA:2,_ZN2DB7getFileERKNSt7__cxx1112basic_stringIcSt11char_traitsIcESaIcEEESt8functionIFvRKN8nlohmann10basic_jsonISt3mapSt6vectorS5_blmdSaNS9_14adl_serializerEEEEE
FN:376,_ZZN2DB7getFileERKNSt7__cxx1112basic_stringIcSt11char_traitsIcESaIcEEESt8functionIFvRKN8nlohmann10basic_jsonISt3mapSt6vectorS5_blmdSaNS9_14adl_serializerEEEEEENKUl18ReturnTypeCallbackSG_E_clESJ_SG_
FNDA:1,_ZZN2DB7getFileERKNSt7__cxx1112basic_stringIcSt11char_traitsIcESaIcEEESt8functionIFvRKN8nlohmann10basic_jsonISt3mapSt6vectorS5_blmdSaNS9_14adl_serializerEEEEEENKUl18ReturnTypeCallbackSG_E_clESJ_SG_
FN:397,_ZN2DB10updateFileERKN8nlohmann10basic_jsonISt3mapSt6vectorNSt7__cxx1112basic_stringIcSt11char_traitsIcESaIcEEEblmdSaNS0_14adl_serializerEEEP21create_json_event_ctxSt8functionIFvSB_EE
FNDA:31,_ZN2DB10updateFileERKN8nlohmann10basic_jsonISt3mapSt6vectorNSt7__cxx1112basic_stringIcSt11char_traitsIcESaIcEEEblmdSaNS0_14adl_serializerEEEP21create_json_event_ctxSt8functionIFvSB_EE
FN:401,_ZZN2DB10updateFileERKN8nlohmann10basic_jsonISt3mapSt6vectorNSt7__cxx1112basic_stringIcSt11char_traitsIcESaIcEEEblmdSaNS0_14adl_serializerEEEP21create_json_event_ctxSt8functionIFvSB_EEENKUl18ReturnTypeCallbackSB_E_clESJ_SB_
FNDA:28,_ZZN2DB10updateFileERKN8nlohmann10basic_jsonISt3mapSt6vectorNSt7__cxx1112basic_stringIcSt11char_traitsIcESaIcEEEblmdSaNS0_14adl_serializerEEEP21create_json_event_ctxSt8functionIFvSB_EEENKUl18ReturnTypeCallbackSB_E_clESJ_SB_
FN:415,_ZN2DB10searchFileERKSt5tupleIJ16FILE_SEARCH_TYPENSt7__cxx1112basic_stringIcSt11char_traitsIcESaIcEEES7_S7_EESt8functionIFvRKS7_EE
FNDA:7,_ZN2DB10searchFileERKSt5tupleIJ16FILE_SEARCH_TYPENSt7__cxx1112basic_stringIcSt11char_traitsIcESaIcEEES7_S7_EESt8functionIFvRKS7_EE
FN:447,_ZZN2DB10searchFileERKSt5tupleIJ16FILE_SEARCH_TYPENSt7__cxx1112basic_stringIcSt11char_traitsIcESaIcEEES7_S7_EESt8functionIFvRKS7_EEENKUl18ReturnTypeCallbackRKN8nlohmann10basic_jsonISt3mapSt6vectorS7_blmdSaNSH_14adl_serializerEEEE_clESG_SO_
FNDA:5,_ZZN2DB10searchFileERKSt5tupleIJ16FILE_SEARCH_TYPENSt7__cxx1112basic_stringIcSt11char_traitsIcESaIcEEES7_S7_EESt8functionIFvRKS7_EEENKUl18ReturnTypeCallbackRKN8nlohmann10basic_jsonISt3mapSt6vectorS7_blmdSaNSH_14adl_serializerEEEE_clESG_SO_
FN:464,fim_db_get_path
FNDA:4,fim_db_get_path
FN:476,_ZZ15fim_db_get_pathENKUlRKN8nlohmann10basic_jsonISt3mapSt6vectorNSt7__cxx1112basic_stringIcSt11char_traitsIcESaIcEEEblmdSaNS_14adl_serializerEEEE_clESC_
FNDA:1,_ZZ15fim_db_get_pathENKUlRKN8nlohmann10basic_jsonISt3mapSt6vectorNSt7__cxx1112basic_stringIcSt11char_traitsIcESaIcEEEblmdSaNS_14adl_serializerEEEE_clESC_
FN:499,fim_db_remove_path
FNDA:12,fim_db_remove_path
FN:526,fim_db_get_count_file_inode
FNDA:6,fim_db_get_count_file_inode
FN:545,fim_db_get_count_file_entry
FNDA:6,fim_db_get_count_file_entry
FN:564,fim_db_file_update
FNDA:33,fim_db_file_update
FN:578,_ZZ18fim_db_file_updateENKUlN8nlohmann10basic_jsonISt3mapSt6vectorNSt7__cxx1112basic_stringIcSt11char_traitsIcESaIcEEEblmdSaNS_14adl_serializerEEEE_clESA_
FNDA:28,_ZZ18fim_db_file_updateENKUlN8nlohmann10basic_jsonISt3mapSt6vectorNSt7__cxx1112basic_stringIcSt11char_traitsIcESaIcEEEblmdSaNS_14adl_serializerEEEE_clESA_
FN:601,fim_db_file_inode_search
FNDA:5,fim_db_file_inode_search
FN:616,_ZZ24fim_db_file_inode_searchENKUlRKNSt7__cxx1112basic_stringIcSt11char_traitsIcESaIcEEEE_clES6_
FNDA:2,_ZZ24fim_db_file_inode_searchENKUlRKNSt7__cxx1112basic_stringIcSt11char_traitsIcESaIcEEEE_clES6_
FN:635,fim_db_file_pattern_search
FNDA:4,fim_db_file_pattern_search
FN:648,_ZZ26fim_db_file_pattern_searchENKUlRKNSt7__cxx1112basic_stringIcSt11char_traitsIcESaIcEEEE_clES6_
FNDA:3,_ZZ26fim_db_file_pattern_searchENKUlRKNSt7__cxx1112basic_stringIcSt11char_traitsIcESaIcEEEE_clES6_
DA:42,28
DA:44,28
DA:45,28
DA:47,28
DA:49,28
DA:50,28
DA:51,28
DA:52,28
DA:54,28
DA:56,3
DA:60,25
DA:63,28
DA:66,28
DA:68,28
DA:70,28
DA:73,28
DA:75,28
DA:78,28
DA:80,28
DA:83,28
DA:85,28
DA:88,28
DA:90,28
DA:93,28
DA:95,28
DA:98,28
DA:100,28
DA:103,28
DA:105,28
DA:108,28
DA:110,28
DA:113,28
DA:115,28
DA:118,28
DA:120,28
DA:123,28
DA:125,28
DA:128,28
DA:130,28
DA:134,28
DA:136,25
DA:140,3
DA:144,28
DA:147,6
DA:148,3
DA:150,3
DA:152,3
DA:154,3
DA:156,1
DA:157,1
DA:161,2
DA:165,3
DA:167,3
DA:169,1
DA:170,1
DA:174,2
DA:178,3
DA:180,3
DA:182,1
DA:183,1
DA:187,2
DA:191,3
DA:193,3
DA:195,1
DA:196,1
DA:200,2
DA:204,3
DA:206,3
DA:208,1
DA:209,1
DA:213,2
DA:217,3
DA:219,3
DA:221,1
DA:222,1
DA:226,2
DA:230,3
DA:232,3
DA:234,2
DA:235,2
DA:239,1
DA:243,3
DA:245,3
DA:247,1
DA:248,1
DA:252,2
DA:256,3
DA:258,3
DA:260,1
DA:261,1
DA:265,2
DA:269,3
DA:271,3
DA:273,1
DA:274,1
DA:278,2
DA:282,3
DA:284,3
DA:286,1
DA:287,1
DA:291,2
DA:295,3
DA:297,3
DA:299,1
DA:300,1
DA:304,2
DA:308,3
DA:310,3
DA:312,1
DA:316,2
DA:320,3
DA:321,3
DA:324,56
DA:325,28
DA:327,11
DA:331,11
DA:332,22
DA:333,77
DA:334,22
DA:335,11
DA:336,11
DA:338,11
DA:339,11
DA:341,2
DA:345,2
DA:346,4
DA:347,44
DA:366,4
DA:367,4
DA:368,2
DA:369,2
DA:370,2
DA:371,2
DA:373,2
DA:376,2
DA:378,1
DA:380,1
DA:382,1
DA:383,2
DA:385,2
DA:387,2
DA:389,1
DA:393,1
DA:395,3
DA:397,31
DA:401,56
DA:403,28
DA:405,28
DA:407,28
DA:408,31
DA:410,31
DA:412,62
DA:413,31
DA:415,7
DA:417,7
DA:418,7
DA:420,7
DA:422,4
DA:424,3
DA:426,2
DA:430,1
DA:435,6
DA:436,12
DA:437,24
DA:438,6
DA:439,12
DA:440,6
DA:441,6
DA:442,6
DA:447,5
DA:449,5
DA:451,5
DA:453,5
DA:454,6
DA:456,6
DA:457,7
DA:464,4
DA:466,4
DA:468,4
DA:470,2
DA:476,5
DA:478,1
DA:479,1
DA:480,1
DA:481,1
DA:483,1
DA:485,1
DA:486,1
DA:496,4
DA:499,12
DA:501,12
DA:503,12
DA:505,1
DA:511,11
DA:512,11
DA:523,12
DA:526,6
DA:528,6
DA:532,6
DA:542,6
DA:545,6
DA:547,6
DA:551,6
DA:561,6
DA:564,33
DA:566,33
DA:568,33
DA:570,2
DA:576,31
DA:577,31
DA:578,31
DA:580,28
DA:581,28
DA:582,28
DA:583,31
DA:584,31
DA:598,33
DA:601,5
DA:605,5
DA:607,5
DA:609,1
DA:615,4
DA:616,2
DA:618,2
DA:619,2
DA:620,2
DA:621,4
DA:632,5
DA:635,4
DA:637,4
DA:639,4
DA:641,2
DA:647,2
DA:648,3
DA:650,3
DA:651,3
DA:652,3
DA:653,2
DA:664,4
end_of_record
SF:/root/wazuh-4.5/src/syscheckd/src/db/include/db.hpp
FN:50,_ZNK14no_entry_found4whatEv
FNDA:1,_ZNK14no_entry_found4whatEv
FN:55,_ZN14no_entry_foundC2ERKNSt7__cxx1112basic_stringIcSt11char_traitsIcESaIcEEE
FNDA:1,_ZN14no_entry_foundC2ERKNSt7__cxx1112basic_stringIcSt11char_traitsIcESaIcEEE
FN:67,_ZN2DB8instanceEv
FNDA:0,_ZN2DB8instanceEv
DA:50,1
DA:52,1
DA:55,1
DA:56,1
DA:57,1
DA:67,0
DA:69,0
DA:70,0
end_of_record
SF:/root/wazuh-4.5/src/syscheckd/src/db/src/dbFileItem.hpp
FN:21,_ZN18FimFileDataDeleterclEP9fim_entry
FNDA:0,_ZN18FimFileDataDeleterclEP9fim_entry
FN:48,_ZN8FileItemC2EPK9fim_entryb
FNDA:0,_ZN8FileItemC2EPK9fim_entryb
FN:81,_ZN8FileItemC2ERKN8nlohmann10basic_jsonISt3mapSt6vectorNSt7__cxx1112basic_stringIcSt11char_traitsIcESaIcEEEblmdSaNS0_14adl_serializerEEE
FNDA:0,_ZN8FileItemC2ERKN8nlohmann10basic_jsonISt3mapSt6vectorNSt7__cxx1112basic_stringIcSt11char_traitsIcESaIcEEEblmdSaNS0_14adl_serializerEEE
FN:103,_ZN8FileItemD0Ev
FNDA:0,_ZN8FileItemD0Ev
FN:103,_ZN8FileItemD2Ev
FNDA:0,_ZN8FileItemD2Ev
FN:104,_ZN8FileItem10toFimEntryEv
FNDA:0,_ZN8FileItem10toFimEntryEv
FN:109,_ZNK8FileItem6toJSONB5cxx11Ev
FNDA:0,_ZNK8FileItem6toJSONB5cxx11Ev
DA:21,0
DA:23,0
DA:25,0
DA:27,0
DA:29,0
DA:32,0
DA:34,0
DA:37,0
DA:40,0
DA:42,0
DA:48,0
DA:49,0
DA:50,0
DA:51,0
DA:52,0
DA:53,0
DA:55,0
DA:56,0
DA:57,0
DA:58,0
DA:59,0
DA:60,0
DA:62,0
DA:63,0
DA:64,0
DA:65,0
DA:67,0
DA:68,0
DA:69,0
DA:70,0
DA:72,0
DA:73,0
DA:74,0
DA:75,0
DA:76,0
DA:77,0
DA:78,0
DA:79,0
DA:81,0
DA:82,0
DA:84,0
DA:85,0
DA:86,0
DA:87,0
DA:88,0
DA:89,0
DA:90,0
DA:91,0
DA:92,0
DA:93,0
DA:94,0
DA:95,0
DA:96,0
DA:97,0
DA:99,0
DA:100,0
DA:101,0
DA:103,0
DA:103,0
DA:104,0
DA:106,0
DA:109,0
DA:111,0
end_of_record
SF:/root/wazuh-4.5/src/syscheckd/src/db/src/fimDBSpecialization.h
FN:375,_ZN12FIMDBCreatorIL6OSType0EE12encodeStringERNSt7__cxx1112basic_stringIcSt11char_traitsIcESaIcEEE
FNDA:0,_ZN12FIMDBCreatorIL6OSType0EE12encodeStringERNSt7__cxx1112basic_stringIcSt11char_traitsIcESaIcEEE
DA:375,0
end_of_record
TN:
SF:/root/wazuh-4.5/src/syscheckd/src/db/src/fimDB.hpp
FN:108,_ZN5FIMDB8instanceEv
FNDA:101,_ZN5FIMDB8instanceEv
FN:207,_ZN5FIMDB11logFunctionE19modules_log_level_tRKNSt7__cxx1112basic_stringIcSt11char_traitsIcESaIcEEE
FNDA:9,_ZN5FIMDB11logFunctionE19modules_log_level_tRKNSt7__cxx1112basic_stringIcSt11char_traitsIcESaIcEEE
FN:221,_ZN5FIMDB13DBSyncHandlerEv
FNDA:0,_ZN5FIMDB13DBSyncHandlerEv
FN:254,_ZN5FIMDB18setTimeLastSyncMsgEv
FNDA:0,_ZN5FIMDB18setTimeLastSyncMsgEv
FN:298,_ZN5FIMDBC2Ev
FNDA:1,_ZN5FIMDBC2Ev
DA:108,101
DA:110,101
DA:111,101
DA:207,9
DA:210,9
DA:212,9
DA:214,9
DA:221,0
DA:223,0
DA:225,0
DA:228,0
DA:254,0
DA:256,0
DA:257,0
DA:298,1
end_of_record
SF:/root/wazuh-4.5/src/syscheckd/src/db/src/dbItem.hpp
FN:21,_ZN6DBItemC2ERKNSt7__cxx1112basic_stringIcSt11char_traitsIcESaIcEEERKjRKlS7_RK14fim_event_mode
FNDA:0,_ZN6DBItemC2ERKNSt7__cxx1112basic_stringIcSt11char_traitsIcESaIcEEERKjRKlS7_RK14fim_event_mode
DA:21,0
DA:26,0
DA:27,0
DA:28,0
DA:29,0
DA:30,0
DA:32,0
DA:33,0
DA:34,0
end_of_record
SF:/root/wazuh-4.5/src/syscheckd/src/db/src/dbRegistryValue.hpp
FN:21,_ZN23FimRegistryValueDeleterclEP9fim_entry
FNDA:0,_ZN23FimRegistryValueDeleterclEP9fim_entry
FN:38,_ZN13RegistryValueC2EPK9fim_entryb
FNDA:0,_ZN13RegistryValueC2EPK9fim_entryb
FN:75,_ZN13RegistryValueD0Ev
FNDA:0,_ZN13RegistryValueD0Ev
FN:75,_ZN13RegistryValueD2Ev
FNDA:0,_ZN13RegistryValueD2Ev
FN:76,_ZN13RegistryValue10toFimEntryEv
FNDA:0,_ZN13RegistryValue10toFimEntryEv
FN:81,_ZNK13RegistryValue6toJSONB5cxx11Ev
FNDA:0,_ZNK13RegistryValue6toJSONB5cxx11Ev
DA:21,0
DA:23,0
DA:25,0
DA:27,0
DA:30,0
DA:32,0
DA:38,0
DA:39,0
DA:40,0
DA:41,0
DA:42,0
DA:43,0
DA:45,0
DA:46,0
DA:47,0
DA:48,0
DA:49,0
DA:50,0
DA:51,0
DA:52,0
DA:53,0
DA:54,0
DA:55,0
DA:56,0
DA:57,0
DA:75,0
DA:75,0
DA:76,0
DA:78,0
DA:81,0
DA:83,0
end_of_record
SF:/root/wazuh-4.5/src/syscheckd/src/db/src/db.cpp
FN:26,_ZN2DB4initEiijjSt8functionIFvRKNSt7__cxx1112basic_stringIcSt11char_traitsIcESaIcEEEEESA_S0_IFv19modules_log_level_tS8_EEiibii
FNDA:15,_ZN2DB4initEiijjSt8functionIFvRKNSt7__cxx1112basic_stringIcSt11char_traitsIcESaIcEEEEESA_S0_IFv19modules_log_level_tS8_EEiibii
FN:61,_ZN2DB12runIntegrityEv
FNDA:0,_ZN2DB12runIntegrityEv
FN:66,_ZN2DB11pushMessageERKNSt7__cxx1112basic_stringIcSt11char_traitsIcESaIcEEE
FNDA:0,_ZN2DB11pushMessageERKNSt7__cxx1112basic_stringIcSt11char_traitsIcESaIcEEE
FN:71,_ZN2DB12DBSyncHandleEv
FNDA:0,_ZN2DB12DBSyncHandleEv
FN:76,_ZN2DB8teardownEv
FNDA:15,_ZN2DB8teardownEv
FN:87,_ZN2DB12countEntriesERKNSt7__cxx1112basic_stringIcSt11char_traitsIcESaIcEEE17COUNT_SELECT_TYPE
FNDA:12,_ZN2DB12countEntriesERKNSt7__cxx1112basic_stringIcSt11char_traitsIcESaIcEEE17COUNT_SELECT_TYPE
FN:92,_ZZN2DB12countEntriesERKNSt7__cxx1112basic_stringIcSt11char_traitsIcESaIcEEE17COUNT_SELECT_TYPEENKUl18ReturnTypeCallbackRKN8nlohmann10basic_jsonISt3mapSt6vectorS5_blmdSaNSA_14adl_serializerEEEE_clES9_SH_
FNDA:12,_ZZN2DB12countEntriesERKNSt7__cxx1112basic_stringIcSt11char_traitsIcESaIcEEE17COUNT_SELECT_TYPEENKUl18ReturnTypeCallbackRKN8nlohmann10basic_jsonISt3mapSt6vectorS5_blmdSaNSA_14adl_serializerEEEE_clES9_SH_
FN:120,fim_db_init
FNDA:15,fim_db_init
FN:236,_ZZ11fim_db_initENKUl19modules_log_level_tRKNSt7__cxx1112basic_stringIcSt11char_traitsIcESaIcEEEE1_clES_S7_
FNDA:9,_ZZ11fim_db_initENKUl19modules_log_level_tRKNSt7__cxx1112basic_stringIcSt11char_traitsIcESaIcEEEE1_clES_S7_
FN:270,fim_run_integrity
FNDA:0,fim_run_integrity
FN:287,fim_sync_push_msg
FNDA:0,fim_sync_push_msg
FN:307,fim_db_transaction_start
FNDA:0,fim_db_transaction_start
FN:322,fim_db_transaction_sync_row
FNDA:0,fim_db_transaction_sync_row
FN:360,fim_db_transaction_deleted_rows
FNDA:0,fim_db_transaction_deleted_rows
FN:380,fim_db_teardown
FNDA:15,fim_db_teardown
DA:26,15
DA:39,15
DA:42,15
DA:43,15
DA:44,15
DA:46,15
DA:48,15
DA:59,15
DA:61,0
DA:63,0
DA:64,0
DA:66,0
DA:68,0
DA:69,0
DA:71,0
DA:73,0
DA:76,15
DA:78,15
DA:79,15
DA:87,12
DA:89,12
DA:92,24
DA:94,12
DA:96,12
DA:98,12
DA:99,12
DA:103,12
DA:104,12
DA:105,12
DA:106,24
DA:107,24
DA:108,12
DA:109,12
DA:110,12
DA:112,12
DA:114,12
DA:115,12
DA:120,15
DA:132,15
DA:236,18
DA:238,9
DA:240,9
DA:242,9
DA:243,15
DA:244,15
DA:256,15
DA:258,15
DA:267,15
DA:270,0
DA:272,0
DA:276,0
DA:277,0
DA:279,0
DA:281,0
DA:282,0
DA:284,0
DA:287,0
DA:289,0
DA:293,0
DA:294,0
DA:304,0
DA:307,0
DA:312,0
DA:314,0
DA:316,0
DA:319,0
DA:320,0
DA:322,0
DA:324,0
DA:326,0
DA:328,0
DA:330,0
DA:332,0
DA:336,0
DA:338,0
DA:342,0
DA:348,0
DA:349,0
DA:351,0
DA:353,0
DA:355,0
DA:357,0
DA:360,0
DA:364,0
DA:365,0
DA:367,0
DA:369,0
DA:372,0
DA:374,0
DA:377,0
DA:380,15
DA:384,15
DA:393,15
end_of_record
SF:/root/wazuh-4.5/src/syscheckd/src/db/include/db.hpp
FN:67,_ZN2DB8instanceEv
FNDA:0,_ZN2DB8instanceEv
DA:67,0
DA:69,0
DA:70,0
end_of_record
SF:/root/wazuh-4.5/src/syscheckd/src/db/src/dbFileItem.hpp
FN:21,_ZN18FimFileDataDeleterclEP9fim_entry
FNDA:0,_ZN18FimFileDataDeleterclEP9fim_entry
FN:48,_ZN8FileItemC2EPK9fim_entryb
FNDA:31,_ZN8FileItemC2EPK9fim_entryb
FN:103,_ZN8FileItemD0Ev
FNDA:0,_ZN8FileItemD0Ev
FN:103,_ZN8FileItemD2Ev
FNDA:0,_ZN8FileItemD2Ev
FN:104,_ZN8FileItem10toFimEntryEv
FNDA:0,_ZN8FileItem10toFimEntryEv
FN:109,_ZNK8FileItem6toJSONB5cxx11Ev
FNDA:0,_ZNK8FileItem6toJSONB5cxx11Ev
DA:21,0
DA:23,0
DA:25,0
DA:27,0
DA:29,0
DA:32,0
DA:34,0
DA:37,0
DA:40,0
DA:42,0
DA:48,31
DA:49,62
DA:50,31
DA:51,31
DA:52,62
DA:53,31
DA:55,31
DA:56,31
DA:57,31
DA:58,31
DA:59,31
DA:60,31
DA:62,31
DA:63,31
DA:64,31
DA:65,31
DA:67,31
DA:68,31
DA:69,31
DA:70,31
DA:72,31
DA:73,31
DA:74,31
DA:75,31
DA:76,31
DA:77,31
DA:78,31
DA:79,31
DA:103,0
DA:103,0
DA:104,0
DA:106,0
DA:109,0
DA:111,0
end_of_record
SF:/root/wazuh-4.5/src/syscheckd/src/db/src/dbRegistryKey.hpp
FN:20,_ZN21FimRegistryKeyDeleterclEP9fim_entry
FNDA:0,_ZN21FimRegistryKeyDeleterclEP9fim_entry
FN:47,_ZN11RegistryKeyC2EPK9fim_entryb
FNDA:0,_ZN11RegistryKeyC2EPK9fim_entryb
FN:89,_ZN11RegistryKeyD0Ev
FNDA:0,_ZN11RegistryKeyD0Ev
FN:89,_ZN11RegistryKeyD2Ev
FNDA:0,_ZN11RegistryKeyD2Ev
FN:90,_ZN11RegistryKey10toFimEntryEv
FNDA:0,_ZN11RegistryKey10toFimEntryEv
FN:95,_ZNK11RegistryKey6toJSONB5cxx11Ev
FNDA:0,_ZNK11RegistryKey6toJSONB5cxx11Ev
DA:20,0
DA:22,0
DA:24,0
DA:26,0
DA:28,0
DA:31,0
DA:33,0
DA:36,0
DA:39,0
DA:41,0
DA:47,0
DA:48,0
DA:49,0
DA:50,0
DA:51,0
DA:52,0
DA:54,0
DA:55,0
DA:56,0
DA:57,0
DA:59,0
DA:60,0
DA:61,0
DA:63,0
DA:64,0
DA:65,0
DA:67,0
DA:68,0
DA:69,0
DA:70,0
DA:71,0
DA:89,0
DA:89,0
DA:90,0
DA:92,0
DA:95,0
DA:97,0
end_of_record
SF:/root/wazuh-4.5/src/syscheckd/src/db/src/fimDBSpecialization.h
FN:347,_ZN12FIMDBCreatorIL6OSType0EE15CreateStatementB5cxx11Ev
FNDA:15,_ZN12FIMDBCreatorIL6OSType0EE15CreateStatementB5cxx11Ev
FN:375,_ZN12FIMDBCreatorIL6OSType0EE12encodeStringERNSt7__cxx1112basic_stringIcSt11char_traitsIcESaIcEEE
FNDA:0,_ZN12FIMDBCreatorIL6OSType0EE12encodeStringERNSt7__cxx1112basic_stringIcSt11char_traitsIcESaIcEEE
DA:347,15
DA:349,15
DA:375,0
end_of_record
TN:
SF:/root/wazuh-4.5/src/syscheckd/src/db/src/dbFileItem.cpp
FN:14,_ZN8FileItem14createFimEntryEv
FNDA:59,_ZN8FileItem14createFimEntryEv
FN:92,_ZN8FileItem10createJSONEv
FNDA:31,_ZN8FileItem10createJSONEv
DA:14,59
DA:16,59
DA:17,59
DA:18,59
DA:19,59
DA:21,59
DA:23,59
DA:24,59
DA:26,59
DA:28,59
DA:29,59
DA:30,59
DA:31,59
DA:33,59
DA:35,59
DA:45,59
DA:47,59
DA:49,59
DA:59,59
DA:60,59
DA:61,59
DA:62,59
DA:63,59
DA:64,59
DA:65,59
DA:66,59
DA:67,59
DA:68,59
DA:69,59
DA:70,59
DA:71,59
DA:72,59
DA:73,59
DA:90,59
DA:92,31
DA:94,31
DA:95,31
DA:96,31
DA:98,31
DA:99,31
DA:100,31
DA:101,31
DA:102,31
DA:103,31
DA:104,31
DA:105,31
DA:106,31
DA:107,31
DA:108,31
DA:109,31
DA:110,31
DA:111,31
DA:112,31
DA:113,31
DA:114,31
DA:115,31
DA:116,31
DA:117,31
DA:118,62
DA:120,31
DA:122,31
DA:123,62
DA:124,31
DA:127,31
DA:128,31
end_of_record
SF:/root/wazuh-4.5/src/syscheckd/src/db/src/fimDBSpecialization.h
end_of_record
SF:/root/wazuh-4.5/src/syscheckd/src/db/src/dbFileItem.hpp
FN:21,_ZN18FimFileDataDeleterclEP9fim_entry
FNDA:0,_ZN18FimFileDataDeleterclEP9fim_entry
DA:21,0
DA:23,0
DA:25,0
DA:27,0
DA:29,0
DA:32,0
DA:34,0
DA:37,0
DA:40,0
DA:42,0
end_of_record
